(lp0
(dp1
S'about'
p2
S''
p3
sS'uri'
p4
S'http://symazz.info/'
p5
sS'rel'
p6
I8
sS'name'
p7
S'Symazz'
p8
sa(dp9
g2
S'RoR \xc5\xa1amanas'
p10
sg4
S'http://arturaz.net/blog/'
p11
sg6
I64
sg7
S'Art\xc5\xabras \xc5\xa0lajus'
p12
sa(dp13
g2
g3
sg4
S'http://crimblog.xz.lt/'
p14
sg6
I8
sg7
S'Criminal'
p15
sa(dp16
g2
g3
sg4
S'http://laisvai.net/tadas'
p17
sg6
I8
sg7
S'Tadas'
p18
sa(dp19
g2
g3
sg4
S'http://blog.bassline.lt/'
p20
sg6
I8
sg7
S'sliekas_kanibalas'
p21
sa.